target datalayout = "e-m:e-p270:32:32-p271:32:32-p272:64:64-i64:64-i128:128-f80:128-n8:16:32:64-S128"
target triple = "x86_64-pc-linux-gnu"

%"struct.Yosys::RTLIL::Const" = type { i16, i8, %union.anon }
%union.anon = type { %"class.std::__cxx11::basic_string" }
%"class.std::__cxx11::basic_string" = type { %"struct.std::__cxx11::basic_string<char>::_Alloc_hider", i64, %union.anon.3 }
%"struct.std::__cxx11::basic_string<char>::_Alloc_hider" = type { ptr }
%union.anon.3 = type { i64, [8 x i8] }
%"struct.std::_Vector_base" = type { %"struct.std::_Vector_base<Yosys::RTLIL::State, std::allocator<Yosys::RTLIL::State>>::_Vector_impl" }
%"struct.std::_Vector_base<Yosys::RTLIL::State, std::allocator<Yosys::RTLIL::State>>::_Vector_impl" = type { %"struct.std::_Vector_base<Yosys::RTLIL::State, std::allocator<Yosys::RTLIL::State>>::_Vector_impl_data" }
%"struct.std::_Vector_base<Yosys::RTLIL::State, std::allocator<Yosys::RTLIL::State>>::_Vector_impl_data" = type { ptr, ptr, ptr }
%class.BigInteger = type { i32, %class.BigUnsigned }
%class.BigUnsigned = type { %class.NumberlikeArray }
%class.NumberlikeArray = type { i32, i32, ptr }

; Function Attrs: mustprogress nounwind uwtable
define linkonce_odr noundef i64 @_ZNK11BigUnsigned8getBlockEj(ptr noundef nonnull align 8 dereferenceable(16) %0, i32 noundef %1) #6 comdat align 2 {
  %3 = alloca ptr, align 8
  %4 = alloca i32, align 4
  store ptr %0, ptr %3, align 8, !tbaa !99
  store i32 %1, ptr %4, align 4, !tbaa !13
  %5 = load ptr, ptr %3, align 8
  %6 = load i32, ptr %4, align 4, !tbaa !13
  %7 = getelementptr inbounds nuw %class.NumberlikeArray, ptr %5, i32 0, i32 1
  %8 = load i32, ptr %7, align 4, !tbaa !105
  %9 = icmp uge i32 %6, %8
  br i1 %9, label %10, label %11

10:                                               ; preds = %2
  br label %18

11:                                               ; preds = %2
  %12 = getelementptr inbounds nuw %class.NumberlikeArray, ptr %5, i32 0, i32 2
  %13 = load ptr, ptr %12, align 8, !tbaa !103
  %14 = load i32, ptr %4, align 4, !tbaa !13
  %15 = zext i32 %14 to i64
  %16 = getelementptr inbounds nuw i64, ptr %13, i64 %15
  %17 = load i64, ptr %16, align 8, !tbaa !24
  br label %18

18:                                               ; preds = %11, %10
  %19 = phi i64 [ 0, %10 ], [ %17, %11 ]
  ret i64 %19
}

; Function Attrs: mustprogress nounwind uwtable
define linkonce_odr noundef zeroext i1 @_ZNK15NumberlikeArrayImE7isEmptyEv(ptr noundef nonnull align 8 dereferenceable(16) %0) #6 comdat align 2 {
  %2 = alloca ptr, align 8
  store ptr %0, ptr %2, align 8, !tbaa !101
  %3 = load ptr, ptr %2, align 8
  %4 = getelementptr inbounds nuw %class.NumberlikeArray, ptr %3, i32 0, i32 1
  %5 = load i32, ptr %4, align 4, !tbaa !105
  %6 = icmp eq i32 %5, 0
  ret i1 %6
}

; Function Attrs: mustprogress uwtable
define linkonce_odr void @_ZN15NumberlikeArrayImEC2ERKS0_(ptr noundef nonnull align 8 dereferenceable(16) %0, ptr noundef nonnull align 8 dereferenceable(16) %1) unnamed_addr #4 comdat align 2 {
  %3 = alloca ptr, align 8
  %4 = alloca ptr, align 8
  %5 = alloca i32, align 4
  store ptr %0, ptr %3, align 8, !tbaa !101
  store ptr %1, ptr %4, align 8, !tbaa !101
  %6 = load ptr, ptr %3, align 8
  %7 = getelementptr inbounds nuw %class.NumberlikeArray, ptr %6, i32 0, i32 1
  %8 = load ptr, ptr %4, align 8, !tbaa !101
  %9 = getelementptr inbounds nuw %class.NumberlikeArray, ptr %8, i32 0, i32 1
  %10 = load i32, ptr %9, align 4, !tbaa !105
  store i32 %10, ptr %7, align 4, !tbaa !105
  %11 = getelementptr inbounds nuw %class.NumberlikeArray, ptr %6, i32 0, i32 1
  %12 = load i32, ptr %11, align 4, !tbaa !105
  %13 = getelementptr inbounds nuw %class.NumberlikeArray, ptr %6, i32 0, i32 0
  store i32 %12, ptr %13, align 8, !tbaa !104
  %14 = getelementptr inbounds nuw %class.NumberlikeArray, ptr %6, i32 0, i32 0
  %15 = load i32, ptr %14, align 8, !tbaa !104
  %16 = zext i32 %15 to i64
  %17 = call { i64, i1 } @llvm.umul.with.overflow.i64(i64 %16, i64 8)
  %18 = extractvalue { i64, i1 } %17, 1
  %19 = extractvalue { i64, i1 } %17, 0
  %20 = select i1 %18, i64 -1, i64 %19
  %21 = call noalias noundef nonnull ptr @_Znam(i64 noundef %20) #18
  %22 = getelementptr inbounds nuw %class.NumberlikeArray, ptr %6, i32 0, i32 2
  store ptr %21, ptr %22, align 8, !tbaa !103
  call void @llvm.lifetime.start.p0(i64 4, ptr %5) #3
  store i32 0, ptr %5, align 4, !tbaa !13
  br label %23

23:                                               ; preds = %41, %2
  %24 = load i32, ptr %5, align 4, !tbaa !13
  %25 = getelementptr inbounds nuw %class.NumberlikeArray, ptr %6, i32 0, i32 1
  %26 = load i32, ptr %25, align 4, !tbaa !105
  %27 = icmp ult i32 %24, %26
  br i1 %27, label %28, label %44

28:                                               ; preds = %23
  %29 = load ptr, ptr %4, align 8, !tbaa !101
  %30 = getelementptr inbounds nuw %class.NumberlikeArray, ptr %29, i32 0, i32 2
  %31 = load ptr, ptr %30, align 8, !tbaa !103
  %32 = load i32, ptr %5, align 4, !tbaa !13
  %33 = zext i32 %32 to i64
  %34 = getelementptr inbounds nuw i64, ptr %31, i64 %33
  %35 = load i64, ptr %34, align 8, !tbaa !24
  %36 = getelementptr inbounds nuw %class.NumberlikeArray, ptr %6, i32 0, i32 2
  %37 = load ptr, ptr %36, align 8, !tbaa !103
  %38 = load i32, ptr %5, align 4, !tbaa !13
  %39 = zext i32 %38 to i64
  %40 = getelementptr inbounds nuw i64, ptr %37, i64 %39
  store i64 %35, ptr %40, align 8, !tbaa !24
  br label %41

41:                                               ; preds = %28
  %42 = load i32, ptr %5, align 4, !tbaa !13
  %43 = add i32 %42, 1
  store i32 %43, ptr %5, align 4, !tbaa !13
  br label %23, !llvm.loop !106

44:                                               ; preds = %23
  call void @llvm.lifetime.end.p0(i64 4, ptr %5) #3
  ret void
}

; Function Attrs: mustprogress nounwind uwtable
define linkonce_odr void @_ZN15NumberlikeArrayImED2Ev(ptr noundef nonnull align 8 dereferenceable(16) %0) unnamed_addr #6 comdat align 2 {
  %2 = alloca ptr, align 8
  store ptr %0, ptr %2, align 8, !tbaa !101
  %3 = load ptr, ptr %2, align 8
  %4 = getelementptr inbounds nuw %class.NumberlikeArray, ptr %3, i32 0, i32 2
  %5 = load ptr, ptr %4, align 8, !tbaa !103
  %6 = icmp eq ptr %5, null
  br i1 %6, label %8, label %7

7:                                                ; preds = %1
  call void @_ZdaPv(ptr noundef %5) #19
  br label %8

8:                                                ; preds = %7, %1
  ret void
}

; Function Attrs: mustprogress nounwind uwtable
define linkonce_odr noundef nonnull align 1 dereferenceable(1) ptr @_ZNSt6vectorIN5Yosys5RTLIL5StateESaIS2_EEixEm(ptr noundef nonnull align 8 dereferenceable(24) %0, i64 noundef %1) #6 comdat align 2 {
  %3 = alloca ptr, align 8
  %4 = alloca i64, align 8
  store ptr %0, ptr %3, align 8, !tbaa !22
  store i64 %1, ptr %4, align 8, !tbaa !24
  %5 = load ptr, ptr %3, align 8
  %6 = getelementptr inbounds nuw %"struct.std::_Vector_base", ptr %5, i32 0, i32 0
  %7 = getelementptr inbounds nuw %"struct.std::_Vector_base<Yosys::RTLIL::State, std::allocator<Yosys::RTLIL::State>>::_Vector_impl_data", ptr %6, i32 0, i32 0
  %8 = load ptr, ptr %7, align 8, !tbaa !26
  %9 = load i64, ptr %4, align 8, !tbaa !24
  %10 = getelementptr inbounds nuw i8, ptr %8, i64 %9
  ret ptr %10
}

; Function Attrs: mustprogress uwtable
define linkonce_odr noundef zeroext i1 @_ZNK11BigUnsigned6getBitEj(ptr noundef nonnull align 8 dereferenceable(16) %0, i32 noundef %1) #4 comdat align 2 {
  %3 = alloca ptr, align 8
  %4 = alloca i32, align 4
  store ptr %0, ptr %3, align 8, !tbaa !99
  store i32 %1, ptr %4, align 4, !tbaa !13
  %5 = load ptr, ptr %3, align 8
  %6 = load i32, ptr %4, align 4, !tbaa !13
  %7 = udiv i32 %6, 64
  %8 = call noundef i64 @_ZNK11BigUnsigned8getBlockEj(ptr noundef nonnull align 8 dereferenceable(16) %5, i32 noundef %7)
  %9 = load i32, ptr %4, align 4, !tbaa !13
  %10 = urem i32 %9, 64
  %11 = zext i32 %10 to i64
  %12 = shl i64 1, %11
  %13 = and i64 %8, %12
  %14 = icmp ne i64 %13, 0
  ret i1 %14
}

; Function Attrs: mustprogress nounwind uwtable
define linkonce_odr noundef i32 @_ZNK10BigInteger7getSignEv(ptr noundef nonnull align 8 dereferenceable(24) %0) #6 comdat align 2 {
  %2 = alloca ptr, align 8
  store ptr %0, ptr %2, align 8, !tbaa !38
  %3 = load ptr, ptr %2, align 8
  %4 = getelementptr inbounds nuw %class.BigInteger, ptr %3, i32 0, i32 0
  %5 = load i32, ptr %4, align 8, !tbaa !40
  ret i32 %5
}

; Function Attrs: mustprogress uwtable
define linkonce_odr noundef zeroext i1 @_ZNK11BigUnsigned6isZeroEv(ptr noundef nonnull align 8 dereferenceable(16) %0) #4 comdat align 2 {
  %2 = alloca ptr, align 8
  store ptr %0, ptr %2, align 8, !tbaa !99
  %3 = load ptr, ptr %2, align 8
  %4 = call noundef zeroext i1 @_ZNK15NumberlikeArrayImE7isEmptyEv(ptr noundef nonnull align 8 dereferenceable(16) %3)
  ret i1 %4
}

; Function Attrs: mustprogress uwtable
define linkonce_odr void @_ZN11BigUnsignedC2ERKS_(ptr noundef nonnull align 8 dereferenceable(16) %0, ptr noundef nonnull align 8 dereferenceable(16) %1) unnamed_addr #4 comdat align 2 {
  %3 = alloca ptr, align 8
  %4 = alloca ptr, align 8
  store ptr %0, ptr %3, align 8, !tbaa !99
  store ptr %1, ptr %4, align 8, !tbaa !99
  %5 = load ptr, ptr %3, align 8
  %6 = load ptr, ptr %4, align 8, !tbaa !99
  call void @_ZN15NumberlikeArrayImEC2ERKS0_(ptr noundef nonnull align 8 dereferenceable(16) %5, ptr noundef nonnull align 8 dereferenceable(16) %6)
  ret void
}

; Function Attrs: mustprogress nounwind uwtable
define linkonce_odr noundef nonnull align 8 dereferenceable(16) ptr @_ZNK10BigInteger12getMagnitudeEv(ptr noundef nonnull align 8 dereferenceable(24) %0) #6 comdat align 2 {
  %2 = alloca ptr, align 8
  store ptr %0, ptr %2, align 8, !tbaa !38
  %3 = load ptr, ptr %2, align 8
  %4 = getelementptr inbounds nuw %class.BigInteger, ptr %3, i32 0, i32 1
  ret ptr %4
}

; Function Attrs: mustprogress uwtable
define internal void @_ZN5YosysL9big2constERK10BigIntegerii(ptr dead_on_unwind noalias writable sret(%"struct.Yosys::RTLIL::Const") align 8 %0, ptr noundef nonnull align 8 dereferenceable(24) %1, i32 noundef %2, i32 noundef %3) #4 personality ptr @__gxx_personality_v0 {
  %5 = alloca ptr, align 8
  %6 = alloca ptr, align 8
  %7 = alloca i32, align 4
  %8 = alloca i32, align 4
  %9 = alloca %class.BigUnsigned, align 8
  %10 = alloca i1, align 1
  %11 = alloca ptr, align 8
  %12 = alloca i32, align 4
  %13 = alloca i32, align 4
  %14 = alloca i32, align 4
  store ptr %0, ptr %5, align 8
  store ptr %1, ptr %6, align 8, !tbaa !38
  store i32 %2, ptr %7, align 4, !tbaa !13
  store i32 %3, ptr %8, align 4, !tbaa !13
  %15 = load i32, ptr %8, align 4, !tbaa !13
  %16 = icmp sge i32 %15, 0
  br i1 %16, label %17, label %19

17:                                               ; preds = %4
  %18 = load i32, ptr %7, align 4, !tbaa !13
  call void @_ZN5Yosys5RTLIL5ConstC1ENS0_5StateEi(ptr noundef nonnull align 8 dereferenceable(40) %0, i8 noundef zeroext 2, i32 noundef %18)
  br label %95

19:                                               ; preds = %4
  call void @llvm.lifetime.start.p0(i64 16, ptr %9) #3
  %20 = load ptr, ptr %6, align 8, !tbaa !38
  %21 = call noundef nonnull align 8 dereferenceable(16) ptr @_ZNK10BigInteger12getMagnitudeEv(ptr noundef nonnull align 8 dereferenceable(24) %20)
  call void @_ZN11BigUnsignedC2ERKS_(ptr noundef nonnull align 8 dereferenceable(16) %9, ptr noundef nonnull align 8 dereferenceable(16) %21)
  store i1 false, ptr %10, align 1
  %22 = load i32, ptr %7, align 4, !tbaa !13
  invoke void @_ZN5Yosys5RTLIL5ConstC1Exi(ptr noundef nonnull align 8 dereferenceable(40) %0, i64 noundef 0, i32 noundef %22)
          to label %23 unwind label %38

23:                                               ; preds = %19
  %24 = invoke noundef zeroext i1 @_ZNK11BigUnsigned6isZeroEv(ptr noundef nonnull align 8 dereferenceable(16) %9)
          to label %25 unwind label %42

25:                                               ; preds = %23
  br i1 %24, label %89, label %26

26:                                               ; preds = %25
  %27 = load ptr, ptr %6, align 8, !tbaa !38
  %28 = invoke noundef i32 @_ZNK10BigInteger7getSignEv(ptr noundef nonnull align 8 dereferenceable(24) %27)
          to label %29 unwind label %42

29:                                               ; preds = %26
  %30 = icmp slt i32 %28, 0
  br i1 %30, label %31, label %64

31:                                               ; preds = %29
  invoke void @_ZN11BigUnsignedmmEi(ptr noundef nonnull align 8 dereferenceable(16) %9, i32 noundef 0)
          to label %32 unwind label %42

32:                                               ; preds = %31
  call void @llvm.lifetime.start.p0(i64 4, ptr %13) #3
  store i32 0, ptr %13, align 4, !tbaa !13
  br label %33

33:                                               ; preds = %56, %32
  %34 = load i32, ptr %13, align 4, !tbaa !13
  %35 = load i32, ptr %7, align 4, !tbaa !13
  %36 = icmp slt i32 %34, %35
  br i1 %36, label %46, label %37

37:                                               ; preds = %33
  call void @llvm.lifetime.end.p0(i64 4, ptr %13) #3
  br label %63

38:                                               ; preds = %19
  %39 = landingpad { ptr, i32 }
          cleanup
  %40 = extractvalue { ptr, i32 } %39, 0
  store ptr %40, ptr %11, align 8
  %41 = extractvalue { ptr, i32 } %39, 1
  store i32 %41, ptr %12, align 4
  br label %94

42:                                               ; preds = %31, %26, %23
  %43 = landingpad { ptr, i32 }
          cleanup
  %44 = extractvalue { ptr, i32 } %43, 0
  store ptr %44, ptr %11, align 8
  %45 = extractvalue { ptr, i32 } %43, 1
  store i32 %45, ptr %12, align 4
  br label %93

46:                                               ; preds = %33
  %47 = load i32, ptr %13, align 4, !tbaa !13
  %48 = invoke noundef zeroext i1 @_ZNK11BigUnsigned6getBitEj(ptr noundef nonnull align 8 dereferenceable(16) %9, i32 noundef %47)
          to label %49 unwind label %59

49:                                               ; preds = %46
  %50 = select i1 %48, i8 0, i8 1
  %51 = invoke noundef nonnull align 8 dereferenceable(24) ptr @_ZN5Yosys5RTLIL5Const4bitsEv(ptr noundef nonnull align 8 dereferenceable(40) %0)
          to label %52 unwind label %59

52:                                               ; preds = %49
  %53 = load i32, ptr %13, align 4, !tbaa !13
  %54 = sext i32 %53 to i64
  %55 = call noundef nonnull align 1 dereferenceable(1) ptr @_ZNSt6vectorIN5Yosys5RTLIL5StateESaIS2_EEixEm(ptr noundef nonnull align 8 dereferenceable(24) %51, i64 noundef %54) #3
  store i8 %50, ptr %55, align 1, !tbaa !17
  br label %56

56:                                               ; preds = %52
  %57 = load i32, ptr %13, align 4, !tbaa !13
  %58 = add nsw i32 %57, 1
  store i32 %58, ptr %13, align 4, !tbaa !13
  br label %33, !llvm.loop !54

59:                                               ; preds = %49, %46
  %60 = landingpad { ptr, i32 }
          cleanup
  %61 = extractvalue { ptr, i32 } %60, 0
  store ptr %61, ptr %11, align 8
  %62 = extractvalue { ptr, i32 } %60, 1
  store i32 %62, ptr %12, align 4
  call void @llvm.lifetime.end.p0(i64 4, ptr %13) #3
  br label %93

63:                                               ; preds = %37
  br label %88

64:                                               ; preds = %29
  call void @llvm.lifetime.start.p0(i64 4, ptr %14) #3
  store i32 0, ptr %14, align 4, !tbaa !13
  br label %65

65:                                               ; preds = %80, %64
  %66 = load i32, ptr %14, align 4, !tbaa !13
  %67 = load i32, ptr %7, align 4, !tbaa !13
  %68 = icmp slt i32 %66, %67
  br i1 %68, label %70, label %69

69:                                               ; preds = %65
  call void @llvm.lifetime.end.p0(i64 4, ptr %14) #3
  br label %87

70:                                               ; preds = %65
  %71 = load i32, ptr %14, align 4, !tbaa !13
  %72 = invoke noundef zeroext i1 @_ZNK11BigUnsigned6getBitEj(ptr noundef nonnull align 8 dereferenceable(16) %9, i32 noundef %71)
          to label %73 unwind label %83

73:                                               ; preds = %70
  %74 = select i1 %72, i8 1, i8 0
  %75 = invoke noundef nonnull align 8 dereferenceable(24) ptr @_ZN5Yosys5RTLIL5Const4bitsEv(ptr noundef nonnull align 8 dereferenceable(40) %0)
          to label %76 unwind label %83

76:                                               ; preds = %73
  %77 = load i32, ptr %14, align 4, !tbaa !13
  %78 = sext i32 %77 to i64
  %79 = call noundef nonnull align 1 dereferenceable(1) ptr @_ZNSt6vectorIN5Yosys5RTLIL5StateESaIS2_EEixEm(ptr noundef nonnull align 8 dereferenceable(24) %75, i64 noundef %78) #3
  store i8 %74, ptr %79, align 1, !tbaa !17
  br label %80

80:                                               ; preds = %76
  %81 = load i32, ptr %14, align 4, !tbaa !13
  %82 = add nsw i32 %81, 1
  store i32 %82, ptr %14, align 4, !tbaa !13
  br label %65, !llvm.loop !55

83:                                               ; preds = %73, %70
  %84 = landingpad { ptr, i32 }
          cleanup
  %85 = extractvalue { ptr, i32 } %84, 0
  store ptr %85, ptr %11, align 8
  %86 = extractvalue { ptr, i32 } %84, 1
  store i32 %86, ptr %12, align 4
  call void @llvm.lifetime.end.p0(i64 4, ptr %14) #3
  br label %93

87:                                               ; preds = %69
  br label %88

88:                                               ; preds = %87, %63
  br label %89

89:                                               ; preds = %88, %25
  store i1 true, ptr %10, align 1
  %90 = load i1, ptr %10, align 1
  br i1 %90, label %92, label %91

91:                                               ; preds = %89
  call void @_ZN5Yosys5RTLIL5ConstD1Ev(ptr noundef nonnull align 8 dereferenceable(40) %0) #3
  br label %92

92:                                               ; preds = %91, %89
  call void @_ZN15NumberlikeArrayImED2Ev(ptr noundef nonnull align 8 dereferenceable(16) %9) #3
  call void @llvm.lifetime.end.p0(i64 16, ptr %9) #3
  br label %95

93:                                               ; preds = %83, %59, %42
  call void @_ZN5Yosys5RTLIL5ConstD1Ev(ptr noundef nonnull align 8 dereferenceable(40) %0) #3
  br label %94

94:                                               ; preds = %93, %38
  call void @_ZN15NumberlikeArrayImED2Ev(ptr noundef nonnull align 8 dereferenceable(16) %9) #3
  call void @llvm.lifetime.end.p0(i64 16, ptr %9) #3
  br label %96

95:                                               ; preds = %92, %17
  ret void

96:                                               ; preds = %94
  %97 = load ptr, ptr %11, align 8
  %98 = load i32, ptr %12, align 4
  %99 = insertvalue { ptr, i32 } poison, ptr %97, 0
  %100 = insertvalue { ptr, i32 } %99, i32 %98, 1
  resume { ptr, i32 } %100
}