; Function Attrs: mustprogress uwtable
define internal fastcc void @_ZN5YosysL9big2constERK10BigIntegerii(ptr dead_on_unwind noalias writable align 8 %0, ptr noundef nonnull readonly align 8 captures(none) dereferenceable(24) %1, i32 noundef %2, i32 noundef %3) unnamed_addr #3 personality ptr @__gxx_personality_v0 {
  %5 = alloca %class.BigUnsigned, align 8
  %6 = icmp sgt i32 %3, -1
  br i1 %6, label %7, label %8

7:                                                ; preds = %4
  tail call void @_ZN5Yosys5RTLIL5ConstC1ENS0_5StateEi(ptr noundef nonnull align 8 dereferenceable(40) %0, i8 noundef zeroext 2, i32 noundef %2)
  br label %78

8:                                                ; preds = %4
  call void @llvm.lifetime.start.p0(i64 16, ptr nonnull %5) #19
  %9 = getelementptr inbounds nuw i8, ptr %5, i64 4
  %10 = getelementptr inbounds nuw i8, ptr %1, i64 12
  %11 = load i32, ptr %10, align 4, !tbaa !58
  store i32 %11, ptr %9, align 4, !tbaa !58
  store i32 %11, ptr %5, align 8, !tbaa !59
  %12 = zext i32 %11 to i64
  %13 = shl nuw nsw i64 %12, 3
  %14 = tail call noalias noundef nonnull ptr @_Znam(i64 noundef %13) #21
  %15 = getelementptr inbounds nuw i8, ptr %5, i64 8
  store ptr %14, ptr %15, align 8, !tbaa !38
  %.not.i.i = icmp eq i32 %11, 0
  br i1 %.not.i.i, label %_ZN11BigUnsignedC2ERKS_.exit, label %.lr.ph.i.i

.lr.ph.i.i:                                       ; preds = %8
  %16 = getelementptr inbounds nuw i8, ptr %1, i64 16
  %17 = load ptr, ptr %16, align 8, !tbaa !38
  br label %18

18:                                               ; preds = %18, %.lr.ph.i.i
  %indvars.iv.i.i = phi i64 [ 0, %.lr.ph.i.i ], [ %indvars.iv.next.i.i, %18 ]
  %19 = getelementptr inbounds nuw i64, ptr %17, i64 %indvars.iv.i.i
  %20 = load i64, ptr %19, align 8, !tbaa !60
  %21 = getelementptr inbounds nuw i64, ptr %14, i64 %indvars.iv.i.i
  store i64 %20, ptr %21, align 8, !tbaa !60
  %indvars.iv.next.i.i = add nuw nsw i64 %indvars.iv.i.i, 1
  %exitcond.not.i.i = icmp eq i64 %indvars.iv.next.i.i, %12
  br i1 %exitcond.not.i.i, label %_ZN11BigUnsignedC2ERKS_.exit, label %18, !llvm.loop !61

_ZN11BigUnsignedC2ERKS_.exit:                     ; preds = %18, %8
  invoke void @_ZN5Yosys5RTLIL5ConstC1Exi(ptr noundef nonnull align 8 dereferenceable(40) %0, i64 noundef 0, i32 noundef %2)
          to label %22 unwind label %.thread

22:                                               ; preds = %_ZN11BigUnsignedC2ERKS_.exit
  br i1 %.not.i.i, label %.loopexit, label %23

23:                                               ; preds = %22
  %24 = load i32, ptr %1, align 8, !tbaa !31
  %25 = icmp slt i32 %24, 0
  br i1 %25, label %27, label %.preheader27

.preheader27:                                     ; preds = %23
  %26 = icmp sgt i32 %2, 0
  br i1 %26, label %.lr.ph.preheader, label %.loopexit

.lr.ph.preheader:                                 ; preds = %.preheader27
  %wide.trip.count = zext nneg i32 %2 to i64
  br label %.lr.ph

27:                                               ; preds = %23
  invoke void @_ZN11BigUnsignedmmEi(ptr noundef nonnull align 8 dereferenceable(16) %5, i32 noundef 0)
          to label %.preheader unwind label %30

.preheader:                                       ; preds = %27
  %28 = icmp sgt i32 %2, 0
  br i1 %28, label %.lr.ph31.preheader, label %.loopexit

.lr.ph31.preheader:                               ; preds = %.preheader
  %wide.trip.count37 = zext nneg i32 %2 to i64
  br label %.lr.ph31

.thread:                                          ; preds = %_ZN11BigUnsignedC2ERKS_.exit
  %29 = landingpad { ptr, i32 }
          cleanup
  br label %76

30:                                               ; preds = %27
  %31 = landingpad { ptr, i32 }
          cleanup
  br label %74

.lr.ph31:                                         ; preds = %.lr.ph31.preheader, %44
  %indvars.iv34 = phi i64 [ 0, %.lr.ph31.preheader ], [ %indvars.iv.next35, %44 ]
  %32 = trunc nuw nsw i64 %indvars.iv34 to i32
  %33 = lshr i32 %32, 6
  %34 = load i32, ptr %9, align 4, !tbaa !58
  %.not.i.i23 = icmp ult i32 %33, %34
  br i1 %.not.i.i23, label %35, label %41

35:                                               ; preds = %.lr.ph31
  %36 = load ptr, ptr %15, align 8, !tbaa !38
  %37 = zext nneg i32 %33 to i64
  %38 = getelementptr inbounds nuw i64, ptr %36, i64 %37
  %39 = load i64, ptr %38, align 8, !tbaa !60
  %40 = xor i64 %39, -1
  br label %41

41:                                               ; preds = %35, %.lr.ph31
  %42 = phi i64 [ %40, %35 ], [ -1, %.lr.ph31 ]
  %43 = invoke noundef nonnull align 8 dereferenceable(24) ptr @_ZN5Yosys5RTLIL5Const4bitsEv(ptr noundef nonnull align 8 dereferenceable(40) %0)
          to label %44 unwind label %51

44:                                               ; preds = %41
  %45 = and i64 %indvars.iv34, 63
  %46 = lshr i64 %42, %45
  %47 = trunc i64 %46 to i8
  %48 = and i8 %47, 1
  %49 = load ptr, ptr %43, align 8, !tbaa !6
  %50 = getelementptr inbounds nuw i8, ptr %49, i64 %indvars.iv34
  store i8 %48, ptr %50, align 1, !tbaa !11
  %indvars.iv.next35 = add nuw nsw i64 %indvars.iv34, 1
  %exitcond38.not = icmp eq i64 %indvars.iv.next35, %wide.trip.count37
  br i1 %exitcond38.not, label %.loopexit, label %.lr.ph31, !llvm.loop !62

51:                                               ; preds = %41
  %52 = landingpad { ptr, i32 }
          cleanup
  br label %74

.lr.ph:                                           ; preds = %.lr.ph.preheader, %62
  %indvars.iv = phi i64 [ 0, %.lr.ph.preheader ], [ %indvars.iv.next, %62 ]
  %53 = trunc nuw nsw i64 %indvars.iv to i32
  %54 = lshr i32 %53, 6
  %.not.i.i24 = icmp ult i32 %54, %11
  br i1 %.not.i.i24, label %55, label %59

55:                                               ; preds = %.lr.ph
  %56 = zext nneg i32 %54 to i64
  %57 = getelementptr inbounds nuw i64, ptr %14, i64 %56
  %58 = load i64, ptr %57, align 8, !tbaa !60
  br label %59

59:                                               ; preds = %55, %.lr.ph
  %60 = phi i64 [ %58, %55 ], [ 0, %.lr.ph ]
  %61 = invoke noundef nonnull align 8 dereferenceable(24) ptr @_ZN5Yosys5RTLIL5Const4bitsEv(ptr noundef nonnull align 8 dereferenceable(40) %0)
          to label %62 unwind label %69

62:                                               ; preds = %59
  %63 = and i64 %indvars.iv, 63
  %64 = lshr i64 %60, %63
  %65 = trunc i64 %64 to i8
  %66 = and i8 %65, 1
  %67 = load ptr, ptr %61, align 8, !tbaa !6
  %68 = getelementptr inbounds nuw i8, ptr %67, i64 %indvars.iv
  store i8 %66, ptr %68, align 1, !tbaa !11
  %indvars.iv.next = add nuw nsw i64 %indvars.iv, 1
  %exitcond.not = icmp eq i64 %indvars.iv.next, %wide.trip.count
  br i1 %exitcond.not, label %.loopexit, label %.lr.ph, !llvm.loop !63

69:                                               ; preds = %59
  %70 = landingpad { ptr, i32 }
          cleanup
  br label %74

.loopexit:                                        ; preds = %62, %44, %.preheader27, %.preheader, %22
  %71 = load ptr, ptr %15, align 8, !tbaa !38
  %72 = icmp eq ptr %71, null
  br i1 %72, label %_ZN15NumberlikeArrayImED2Ev.exit, label %73

73:                                               ; preds = %.loopexit
  call void @_ZdaPv(ptr noundef nonnull %71) #22
  br label %_ZN15NumberlikeArrayImED2Ev.exit

_ZN15NumberlikeArrayImED2Ev.exit:                 ; preds = %.loopexit, %73
  call void @llvm.lifetime.end.p0(i64 16, ptr nonnull %5) #19
  br label %78

74:                                               ; preds = %30, %51, %69
  %.pn = phi { ptr, i32 } [ %52, %51 ], [ %31, %30 ], [ %70, %69 ]
  call void @_ZN5Yosys5RTLIL5ConstD1Ev(ptr noundef nonnull align 8 dereferenceable(40) %0) #19
  %.pre = load ptr, ptr %15, align 8, !tbaa !38
  %75 = icmp eq ptr %.pre, null
  br i1 %75, label %_ZN15NumberlikeArrayImED2Ev.exit26, label %76

76:                                               ; preds = %.thread, %74
  %.pn.pn40 = phi { ptr, i32 } [ %29, %.thread ], [ %.pn, %74 ]
  %77 = phi ptr [ %14, %.thread ], [ %.pre, %74 ]
  call void @_ZdaPv(ptr noundef nonnull %77) #22
  br label %_ZN15NumberlikeArrayImED2Ev.exit26

_ZN15NumberlikeArrayImED2Ev.exit26:               ; preds = %74, %76
  %.pn.pn41 = phi { ptr, i32 } [ %.pn, %74 ], [ %.pn.pn40, %76 ]
  call void @llvm.lifetime.end.p0(i64 16, ptr nonnull %5) #19
  resume { ptr, i32 } %.pn.pn41

78:                                               ; preds = %_ZN15NumberlikeArrayImED2Ev.exit, %7
  ret void
}